target datalayout = "e-m:e-p270:32:32-p271:32:32-p272:64:64-i64:64-i128:128-f80:128-n8:16:32:64-S128"
target triple = "x86_64-pc-linux-gnu"

%struct._value_string = type { i32, ptr }
%struct.mac_nr_info = type { i8, i8, i8, i16, i16, i8, i8, i32, i16, i16, i16 }
%struct._proto_node = type { ptr, ptr, ptr, ptr, ptr, ptr }
%struct.field_info = type { ptr, i32, i32, i32, i32, i32, i32, ptr, ptr, ptr, i32, i32 }

@hf_mac_nr_context_bcch_transport_channel = internal global i32 0, align 4
@bcch_transport_channel_vals = internal constant [3 x %struct._value_string] [%struct._value_string { i32 4, ptr @.str.596 }, %struct._value_string { i32 0, ptr @.str.597 }, %struct._value_string zeroinitializer], align 16
@hf_mac_nr_bcch_pdu = internal global i32 0, align 4
@global_mac_nr_attempt_rrc_decode = internal global i32 1, align 4
@nr_rrc_bcch_bch_handle = internal global ptr null, align 8
@nr_rrc_bcch_dl_sch_handle = internal global ptr null, align 8
@.str.1176 = private unnamed_addr constant [8 x i8] c"Unknown\00", align 1
@.str.1217 = private unnamed_addr constant [38 x i8] c"BCCH PDU (%u bytes, on %s transport) \00", align 1

; Function Attrs: nounwind uwtable
define internal void @proto_item_set_hidden(ptr noundef %0) #0 {
  %2 = alloca ptr, align 8
  store ptr %0, ptr %2, align 8
  %3 = load ptr, ptr %2, align 8
  %4 = icmp ne ptr %3, null
  br i1 %4, label %5, label %24

5:                                                ; preds = %1
  br label %6

6:                                                ; preds = %5
  %7 = load ptr, ptr %2, align 8
  %8 = getelementptr inbounds %struct._proto_node, ptr %7, i32 0, i32 4
  %9 = load ptr, ptr %8, align 8
  %10 = icmp ne ptr %9, null
  br i1 %10, label %11, label %22

11:                                               ; preds = %6
  %12 = load ptr, ptr %2, align 8
  %13 = getelementptr inbounds %struct._proto_node, ptr %12, i32 0, i32 4
  %14 = load ptr, ptr %13, align 8
  %15 = getelementptr inbounds %struct.field_info, ptr %14, i32 0, i32 6
  %16 = load i32, ptr %15, align 4
  %17 = or i32 %16, 1
  %18 = load ptr, ptr %2, align 8
  %19 = getelementptr inbounds %struct._proto_node, ptr %18, i32 0, i32 4
  %20 = load ptr, ptr %19, align 8
  %21 = getelementptr inbounds %struct.field_info, ptr %20, i32 0, i32 6
  store i32 %17, ptr %21, align 4
  br label %22

22:                                               ; preds = %11, %6
  br label %23

23:                                               ; preds = %22
  br label %24

24:                                               ; preds = %23, %1
  ret void
}

; Function Attrs: nounwind uwtable
define internal void @proto_item_set_generated(ptr noundef %0) #0 {
  %2 = alloca ptr, align 8
  store ptr %0, ptr %2, align 8
  %3 = load ptr, ptr %2, align 8
  %4 = icmp ne ptr %3, null
  br i1 %4, label %5, label %24

5:                                                ; preds = %1
  br label %6

6:                                                ; preds = %5
  %7 = load ptr, ptr %2, align 8
  %8 = getelementptr inbounds %struct._proto_node, ptr %7, i32 0, i32 4
  %9 = load ptr, ptr %8, align 8
  %10 = icmp ne ptr %9, null
  br i1 %10, label %11, label %22

11:                                               ; preds = %6
  %12 = load ptr, ptr %2, align 8
  %13 = getelementptr inbounds %struct._proto_node, ptr %12, i32 0, i32 4
  %14 = load ptr, ptr %13, align 8
  %15 = getelementptr inbounds %struct.field_info, ptr %14, i32 0, i32 6
  %16 = load i32, ptr %15, align 4
  %17 = or i32 %16, 2
  %18 = load ptr, ptr %2, align 8
  %19 = getelementptr inbounds %struct._proto_node, ptr %18, i32 0, i32 4
  %20 = load ptr, ptr %19, align 8
  %21 = getelementptr inbounds %struct.field_info, ptr %20, i32 0, i32 6
  store i32 %17, ptr %21, align 4
  br label %22

22:                                               ; preds = %11, %6
  br label %23

23:                                               ; preds = %22
  br label %24

24:                                               ; preds = %23, %1
  ret void
}

; Function Attrs: nounwind uwtable
define internal void @dissect_bcch(ptr noundef %0, ptr noundef %1, ptr noundef %2, ptr noundef %3, i32 noundef %4, ptr noundef %5, ptr noundef %6) #0 {
  %8 = alloca ptr, align 8
  %9 = alloca ptr, align 8
  %10 = alloca ptr, align 8
  %11 = alloca ptr, align 8
  %12 = alloca i32, align 4
  %13 = alloca ptr, align 8
  %14 = alloca ptr, align 8
  %15 = alloca ptr, align 8
  %16 = alloca ptr, align 8
  %17 = alloca ptr, align 8
  store ptr %0, ptr %8, align 8
  store ptr %1, ptr %9, align 8
  store ptr %2, ptr %10, align 8
  store ptr %3, ptr %11, align 8
  store i32 %4, ptr %12, align 4
  store ptr %5, ptr %13, align 8
  store ptr %6, ptr %14, align 8
  %18 = load ptr, ptr %11, align 8
  %19 = load ptr, ptr %9, align 8
  %20 = load ptr, ptr %8, align 8
  %21 = load i32, ptr %12, align 4
  %22 = call i32 @tvb_reported_length_remaining(ptr noundef %20, i32 noundef %21)
  %23 = load ptr, ptr %13, align 8
  %24 = getelementptr inbounds %struct.mac_nr_info, ptr %23, i32 0, i32 2
  %25 = load i8, ptr %24, align 2
  %26 = zext i8 %25 to i32
  %27 = call ptr @val_to_str_const(i32 noundef %26, ptr noundef @bcch_transport_channel_vals, ptr noundef @.str.1176)
  call void (ptr, ptr, ptr, ptr, ...) @write_pdu_label_and_info(ptr noundef %18, ptr noundef null, ptr noundef %19, ptr noundef @.str.1217, i32 noundef %22, ptr noundef %27)
  %28 = load ptr, ptr %10, align 8
  %29 = load i32, ptr @hf_mac_nr_context_bcch_transport_channel, align 4
  %30 = load ptr, ptr %8, align 8
  %31 = load i32, ptr %12, align 4
  %32 = load ptr, ptr %13, align 8
  %33 = getelementptr inbounds %struct.mac_nr_info, ptr %32, i32 0, i32 2
  %34 = load i8, ptr %33, align 2
  %35 = zext i8 %34 to i32
  %36 = call ptr @proto_tree_add_uint(ptr noundef %28, i32 noundef %29, ptr noundef %30, i32 noundef %31, i32 noundef 0, i32 noundef %35)
  store ptr %36, ptr %15, align 8
  %37 = load ptr, ptr %15, align 8
  call void @proto_item_set_generated(ptr noundef %37)
  %38 = load ptr, ptr %10, align 8
  %39 = load i32, ptr @hf_mac_nr_bcch_pdu, align 4
  %40 = load ptr, ptr %8, align 8
  %41 = load i32, ptr %12, align 4
  %42 = call ptr @proto_tree_add_item(ptr noundef %38, i32 noundef %39, ptr noundef %40, i32 noundef %41, i32 noundef -1, i32 noundef 0)
  store ptr %42, ptr %15, align 8
  %43 = load i32, ptr @global_mac_nr_attempt_rrc_decode, align 4
  %44 = icmp ne i32 %43, 0
  br i1 %44, label %45, label %64

45:                                               ; preds = %7
  %46 = load ptr, ptr %8, align 8
  %47 = load i32, ptr %12, align 4
  %48 = call ptr @tvb_new_subset_remaining(ptr noundef %46, i32 noundef %47)
  store ptr %48, ptr %17, align 8
  %49 = load ptr, ptr %13, align 8
  %50 = getelementptr inbounds %struct.mac_nr_info, ptr %49, i32 0, i32 2
  %51 = load i8, ptr %50, align 2
  %52 = zext i8 %51 to i32
  %53 = icmp eq i32 %52, 0
  br i1 %53, label %54, label %56

54:                                               ; preds = %45
  %55 = load ptr, ptr @nr_rrc_bcch_bch_handle, align 8
  store ptr %55, ptr %16, align 8
  br label %58

56:                                               ; preds = %45
  %57 = load ptr, ptr @nr_rrc_bcch_dl_sch_handle, align 8
  store ptr %57, ptr %16, align 8
  br label %58

58:                                               ; preds = %56, %54
  %59 = load ptr, ptr %15, align 8
  call void @proto_item_set_hidden(ptr noundef %59)
  %60 = load ptr, ptr %16, align 8
  %61 = load ptr, ptr %17, align 8
  %62 = load ptr, ptr %9, align 8
  %63 = load ptr, ptr %10, align 8
  call void @call_with_catch_all(ptr noundef %60, ptr noundef %61, ptr noundef %62, ptr noundef %63)
  br label %64

64:                                               ; preds = %58, %7
  ret void
}