; Function Attrs: nounwind uwtable
define internal fastcc void @dissect_bcch(ptr noundef %0, ptr noundef %1, ptr noundef %2, ptr noundef %3, ptr noundef nonnull readonly captures(none) %4) unnamed_addr #0 {
  %6 = tail call i32 @tvb_reported_length_remaining(ptr noundef %0, i32 noundef 0) #12
  %7 = getelementptr inbounds nuw i8, ptr %4, i64 2
  %8 = load i8, ptr %7, align 2
  %9 = zext i8 %8 to i32
  %10 = tail call ptr @val_to_str_const(i32 noundef %9, ptr noundef nonnull @bcch_transport_channel_vals, ptr noundef nonnull @.str.1176) #12
  tail call void (ptr, ptr, ptr, ptr, ...) @write_pdu_label_and_info(ptr noundef %3, ptr noundef null, ptr noundef %1, ptr noundef nonnull @.str.1217, i32 noundef %6, ptr noundef %10)
  %11 = load i32, ptr @hf_mac_nr_context_bcch_transport_channel, align 4
  %12 = load i8, ptr %7, align 2
  %13 = zext i8 %12 to i32
  %14 = tail call ptr @proto_tree_add_uint(ptr noundef %2, i32 noundef %11, ptr noundef %0, i32 noundef 0, i32 noundef 0, i32 noundef %13) #12
  %.not.i = icmp eq ptr %14, null
  br i1 %.not.i, label %proto_item_set_generated.exit, label %15

15:                                               ; preds = %5
  %16 = getelementptr inbounds nuw i8, ptr %14, i64 32
  %17 = load ptr, ptr %16, align 8
  %.not5.i = icmp eq ptr %17, null
  br i1 %.not5.i, label %proto_item_set_generated.exit, label %18

18:                                               ; preds = %15
  %19 = getelementptr inbounds nuw i8, ptr %17, i64 28
  %20 = load i32, ptr %19, align 4
  %21 = or i32 %20, 2
  store i32 %21, ptr %19, align 4
  br label %proto_item_set_generated.exit

proto_item_set_generated.exit:                    ; preds = %5, %15, %18
  %22 = load i32, ptr @hf_mac_nr_bcch_pdu, align 4
  %23 = tail call ptr @proto_tree_add_item(ptr noundef %2, i32 noundef %22, ptr noundef %0, i32 noundef 0, i32 noundef -1, i32 noundef 0) #12
  %24 = load i32, ptr @global_mac_nr_attempt_rrc_decode, align 4
  %.not = icmp eq i32 %24, 0
  br i1 %.not, label %36, label %25

25:                                               ; preds = %proto_item_set_generated.exit
  %26 = tail call ptr @tvb_new_subset_remaining(ptr noundef %0, i32 noundef 0) #12
  %27 = load i8, ptr %7, align 2
  %28 = icmp eq i8 %27, 0
  %nr_rrc_bcch_bch_handle.val = load ptr, ptr @nr_rrc_bcch_bch_handle, align 8
  %nr_rrc_bcch_dl_sch_handle.val = load ptr, ptr @nr_rrc_bcch_dl_sch_handle, align 8
  %.0 = select i1 %28, ptr %nr_rrc_bcch_bch_handle.val, ptr %nr_rrc_bcch_dl_sch_handle.val
  %.not.i20 = icmp eq ptr %23, null
  br i1 %.not.i20, label %proto_item_set_hidden.exit, label %29

29:                                               ; preds = %25
  %30 = getelementptr inbounds nuw i8, ptr %23, i64 32
  %31 = load ptr, ptr %30, align 8
  %.not5.i21 = icmp eq ptr %31, null
  br i1 %.not5.i21, label %proto_item_set_hidden.exit, label %32

32:                                               ; preds = %29
  %33 = getelementptr inbounds nuw i8, ptr %31, i64 28
  %34 = load i32, ptr %33, align 4
  %35 = or i32 %34, 1
  store i32 %35, ptr %33, align 4
  br label %proto_item_set_hidden.exit

proto_item_set_hidden.exit:                       ; preds = %25, %29, %32
  tail call fastcc void @call_with_catch_all(ptr noundef %.0, ptr noundef %26, ptr noundef %1, ptr noundef %2)
  br label %36

36:                                               ; preds = %proto_item_set_hidden.exit, %proto_item_set_generated.exit
  ret void
}